target datalayout = "e-m:e-p270:32:32-p271:32:32-p272:64:64-i64:64-i128:128-f80:128-n8:16:32:64-S128"
target triple = "x86_64-pc-linux-gnu"

%class.Node = type <{ ptr, ptr, ptr, i32, i32, i32, i32, i32, i32, i32, [4 x i8] }>
%class.TypeVect = type <{ %class.Type.base, [4 x i8], ptr, i32, [4 x i8] }>
%class.Type.base = type <{ ptr, ptr, i32 }>
%class.Node.base = type <{ ptr, ptr, ptr, i32, i32, i32, i32, i32, i32, i32 }>
%class.TypeNode = type { %class.Node.base, ptr }

@_ZN4Type17_const_basic_typeE = external global [20 x ptr], align 16

; Function Attrs: mustprogress nounwind uwtable
define linkonce_odr hidden void @_ZN4Node10init_flagsEj(ptr noundef nonnull align 8 dereferenceable(52) %0, i32 noundef %1) #1 comdat align 2 {
  %3 = alloca ptr, align 8
  %4 = alloca i32, align 4
  store ptr %0, ptr %3, align 8
  store i32 %1, ptr %4, align 4
  %5 = load ptr, ptr %3, align 8
  %6 = load i32, ptr %4, align 4
  %7 = getelementptr inbounds %class.Node, ptr %5, i32 0, i32 9
  %8 = load i32, ptr %7, align 8
  %9 = or i32 %8, %6
  store i32 %9, ptr %7, align 8
  ret void
}

; Function Attrs: mustprogress nounwind uwtable
define linkonce_odr hidden noundef i32 @_ZNK8TypeVect6lengthEv(ptr noundef nonnull align 8 dereferenceable(36) %0) #1 comdat align 2 {
  %2 = alloca ptr, align 8
  store ptr %0, ptr %2, align 8
  %3 = load ptr, ptr %2, align 8
  %4 = getelementptr inbounds %class.TypeVect, ptr %3, i32 0, i32 3
  %5 = load i32, ptr %4, align 8
  ret i32 %5
}

; Function Attrs: mustprogress nounwind uwtable
define linkonce_odr hidden noundef ptr @_ZNK4Type7is_vectEv(ptr noundef nonnull align 8 dereferenceable(20) %0) #1 comdat align 2 {
  %2 = alloca ptr, align 8
  store ptr %0, ptr %2, align 8
  %3 = load ptr, ptr %2, align 8
  ret ptr %3
}

; Function Attrs: mustprogress nounwind uwtable
define linkonce_odr hidden noundef ptr @_ZNK8TypeNode4typeEv(ptr noundef nonnull align 8 dereferenceable(64) %0) #1 comdat align 2 {
  %2 = alloca ptr, align 8
  store ptr %0, ptr %2, align 8
  %3 = load ptr, ptr %2, align 8
  %4 = getelementptr inbounds %class.TypeNode, ptr %3, i32 0, i32 1
  %5 = load ptr, ptr %4, align 8
  ret ptr %5
}

; Function Attrs: mustprogress nounwind uwtable
define linkonce_odr hidden void @_ZN4Node8add_flagEj(ptr noundef nonnull align 8 dereferenceable(52) %0, i32 noundef %1) #1 comdat align 2 {
  %3 = alloca ptr, align 8
  %4 = alloca i32, align 4
  store ptr %0, ptr %3, align 8
  store i32 %1, ptr %4, align 4
  %5 = load ptr, ptr %3, align 8
  %6 = load i32, ptr %4, align 4
  call void @_ZN4Node10init_flagsEj(ptr noundef nonnull align 8 dereferenceable(52) %5, i32 noundef %6)
  ret void
}

; Function Attrs: mustprogress nounwind uwtable
define linkonce_odr hidden noundef ptr @_ZNK4Node2inEj(ptr noundef nonnull align 8 dereferenceable(52) %0, i32 noundef %1) #1 comdat align 2 {
  %3 = alloca ptr, align 8
  %4 = alloca i32, align 4
  store ptr %0, ptr %3, align 8
  store i32 %1, ptr %4, align 4
  %5 = load ptr, ptr %3, align 8
  %6 = getelementptr inbounds %class.Node, ptr %5, i32 0, i32 1
  %7 = load ptr, ptr %6, align 8
  %8 = load i32, ptr %4, align 4
  %9 = zext i32 %8 to i64
  %10 = getelementptr inbounds ptr, ptr %7, i64 %9
  %11 = load ptr, ptr %10, align 8
  ret ptr %11
}

; Function Attrs: mustprogress nounwind uwtable
define linkonce_odr hidden noundef ptr @_ZN4Type20get_const_basic_typeE9BasicType(i8 noundef zeroext %0) #1 comdat align 2 {
  %2 = alloca i8, align 1
  store i8 %0, ptr %2, align 1
  %3 = load i8, ptr %2, align 1
  %4 = zext i8 %3 to i64
  %5 = getelementptr inbounds [20 x ptr], ptr @_ZN4Type17_const_basic_typeE, i64 0, i64 %4
  %6 = load ptr, ptr %5, align 8
  ret ptr %6
}

; Function Attrs: mustprogress nounwind uwtable
define linkonce_odr hidden noundef i32 @_ZNK10VectorNode6lengthEv(ptr noundef nonnull align 8 dereferenceable(64) %0) #1 comdat align 2 {
  %2 = alloca ptr, align 8
  store ptr %0, ptr %2, align 8
  %3 = load ptr, ptr %2, align 8
  %4 = call noundef ptr @_ZNK10VectorNode9vect_typeEv(ptr noundef nonnull align 8 dereferenceable(64) %3)
  %5 = call noundef i32 @_ZNK8TypeVect6lengthEv(ptr noundef nonnull align 8 dereferenceable(36) %4)
  ret i32 %5
}

; Function Attrs: mustprogress nounwind uwtable
define linkonce_odr hidden noundef zeroext i8 @_ZNK8TypeVect18element_basic_typeEv(ptr noundef nonnull align 8 dereferenceable(36) %0) #1 comdat align 2 {
  %2 = alloca ptr, align 8
  store ptr %0, ptr %2, align 8
  %3 = load ptr, ptr %2, align 8
  %4 = getelementptr inbounds %class.TypeVect, ptr %3, i32 0, i32 2
  %5 = load ptr, ptr %4, align 8
  %6 = call noundef zeroext i8 @_ZNK4Type24array_element_basic_typeEv(ptr noundef nonnull align 8 dereferenceable(20) %5)
  ret i8 %6
}

; Function Attrs: mustprogress nounwind uwtable
define linkonce_odr hidden noundef ptr @_ZNK10VectorNode9vect_typeEv(ptr noundef nonnull align 8 dereferenceable(64) %0) #1 comdat align 2 {
  %2 = alloca ptr, align 8
  store ptr %0, ptr %2, align 8
  %3 = load ptr, ptr %2, align 8
  %4 = call noundef ptr @_ZNK8TypeNode4typeEv(ptr noundef nonnull align 8 dereferenceable(64) %3)
  %5 = call noundef ptr @_ZNK4Type7is_vectEv(ptr noundef nonnull align 8 dereferenceable(20) %4)
  ret ptr %5
}

; Function Attrs: mustprogress nounwind uwtable
define hidden noundef ptr @_ZN8NegVNode26degenerate_integral_negateEP8PhaseGVNb(ptr noundef nonnull align 8 dereferenceable(64) %0, ptr noundef %1, i1 noundef zeroext %2) #1 align 2 {
  %4 = alloca ptr, align 8
  %5 = alloca ptr, align 8
  %6 = alloca ptr, align 8
  %7 = alloca i8, align 1
  %8 = alloca ptr, align 8
  %9 = alloca i8, align 1
  %10 = alloca i32, align 4
  %11 = alloca ptr, align 8
  %12 = alloca ptr, align 8
  %13 = alloca i32, align 4
  %14 = alloca ptr, align 8
  %15 = alloca ptr, align 8
  %16 = alloca ptr, align 8
  %17 = alloca i32, align 4
  store ptr %0, ptr %5, align 8
  store ptr %1, ptr %6, align 8
  %18 = zext i1 %2 to i8
  store i8 %18, ptr %7, align 1
  %19 = load ptr, ptr %5, align 8
  %20 = call noundef ptr @_ZNK10VectorNode9vect_typeEv(ptr noundef nonnull align 8 dereferenceable(64) %19)
  store ptr %20, ptr %8, align 8
  %21 = load ptr, ptr %8, align 8
  %22 = call noundef zeroext i8 @_ZNK8TypeVect18element_basic_typeEv(ptr noundef nonnull align 8 dereferenceable(36) %21)
  store i8 %22, ptr %9, align 1
  %23 = call noundef i32 @_ZNK10VectorNode6lengthEv(ptr noundef nonnull align 8 dereferenceable(64) %19)
  store i32 %23, ptr %10, align 4
  %24 = load i8, ptr %7, align 1
  %25 = trunc i8 %24 to i1
  br i1 %25, label %26, label %85

26:                                               ; preds = %3
  store ptr null, ptr %11, align 8
  store ptr null, ptr %12, align 8
  %27 = load i8, ptr %9, align 1
  %28 = zext i8 %27 to i32
  %29 = icmp eq i32 %28, 11
  br i1 %29, label %30, label %35

30:                                               ; preds = %26
  %31 = load ptr, ptr %6, align 8
  %32 = call noundef ptr @_ZN11PhaseValues7longconEl(ptr noundef nonnull align 8 dereferenceable(2400) %31, i64 noundef -1)
  store ptr %32, ptr %11, align 8
  %33 = load ptr, ptr %6, align 8
  %34 = call noundef ptr @_ZN11PhaseValues7longconEl(ptr noundef nonnull align 8 dereferenceable(2400) %33, i64 noundef 1)
  store ptr %34, ptr %12, align 8
  store i32 24, ptr %13, align 4
  br label %40

35:                                               ; preds = %26
  %36 = load ptr, ptr %6, align 8
  %37 = call noundef ptr @_ZN11PhaseValues6intconEi(ptr noundef nonnull align 8 dereferenceable(2400) %36, i32 noundef -1)
  store ptr %37, ptr %11, align 8
  %38 = load ptr, ptr %6, align 8
  %39 = call noundef ptr @_ZN11PhaseValues6intconEi(ptr noundef nonnull align 8 dereferenceable(2400) %38, i32 noundef 1)
  store ptr %39, ptr %12, align 8
  store i32 23, ptr %13, align 4
  br label %40

40:                                               ; preds = %35, %30
  %41 = load ptr, ptr %6, align 8
  %42 = load ptr, ptr %11, align 8
  %43 = load i32, ptr %10, align 4
  %44 = load i8, ptr %9, align 1
  %45 = call noundef ptr @_ZN4Type20get_const_basic_typeE9BasicType(i8 noundef zeroext %44)
  %46 = call noundef ptr @_ZN10VectorNode13scalar2vectorEP4NodejPK4Typeb(ptr noundef %42, i32 noundef %43, ptr noundef %45, i1 noundef zeroext false)
  %47 = load ptr, ptr %41, align 8
  %48 = getelementptr inbounds ptr, ptr %47, i64 0
  %49 = load ptr, ptr %48, align 8
  %50 = call noundef ptr %49(ptr noundef nonnull align 8 dereferenceable(2400) %41, ptr noundef %46)
  store ptr %50, ptr %11, align 8
  %51 = call noundef ptr @_ZNK4Node2inEj(ptr noundef nonnull align 8 dereferenceable(52) %19, i32 noundef 1)
  %52 = load ptr, ptr %11, align 8
  %53 = load ptr, ptr %8, align 8
  %54 = call noundef ptr @_ZN10VectorNode4makeEiP4NodeS1_PK8TypeVectbb(i32 noundef 417, ptr noundef %51, ptr noundef %52, ptr noundef %53, i1 noundef zeroext false, i1 noundef zeroext false)
  store ptr %54, ptr %14, align 8
  %55 = load ptr, ptr %14, align 8
  %56 = call noundef ptr @_ZNK4Node2inEj(ptr noundef nonnull align 8 dereferenceable(52) %19, i32 noundef 2)
  call void @_ZN4Node7add_reqEPS_(ptr noundef nonnull align 8 dereferenceable(52) %55, ptr noundef %56)
  %57 = load ptr, ptr %14, align 8
  call void @_ZN4Node8add_flagEj(ptr noundef nonnull align 8 dereferenceable(52) %57, i32 noundef 16384)
  %58 = load ptr, ptr %6, align 8
  %59 = load ptr, ptr %14, align 8
  %60 = load ptr, ptr %58, align 8
  %61 = getelementptr inbounds ptr, ptr %60, i64 0
  %62 = load ptr, ptr %61, align 8
  %63 = call noundef ptr %62(ptr noundef nonnull align 8 dereferenceable(2400) %58, ptr noundef %59)
  %64 = load ptr, ptr %6, align 8
  %65 = load ptr, ptr %12, align 8
  %66 = load i32, ptr %10, align 4
  %67 = load i8, ptr %9, align 1
  %68 = call noundef ptr @_ZN4Type20get_const_basic_typeE9BasicType(i8 noundef zeroext %67)
  %69 = call noundef ptr @_ZN10VectorNode13scalar2vectorEP4NodejPK4Typeb(ptr noundef %65, i32 noundef %66, ptr noundef %68, i1 noundef zeroext false)
  %70 = load ptr, ptr %64, align 8
  %71 = getelementptr inbounds ptr, ptr %70, i64 0
  %72 = load ptr, ptr %71, align 8
  %73 = call noundef ptr %72(ptr noundef nonnull align 8 dereferenceable(2400) %64, ptr noundef %69)
  store ptr %73, ptr %12, align 8
  %74 = load i32, ptr %13, align 4
  %75 = load i8, ptr %9, align 1
  %76 = call noundef i32 @_ZN10VectorNode6opcodeEi9BasicType(i32 noundef %74, i8 noundef zeroext %75)
  %77 = load ptr, ptr %14, align 8
  %78 = load ptr, ptr %12, align 8
  %79 = load ptr, ptr %8, align 8
  %80 = call noundef ptr @_ZN10VectorNode4makeEiP4NodeS1_PK8TypeVectbb(i32 noundef %76, ptr noundef %77, ptr noundef %78, ptr noundef %79, i1 noundef zeroext false, i1 noundef zeroext false)
  store ptr %80, ptr %15, align 8
  %81 = load ptr, ptr %15, align 8
  %82 = call noundef ptr @_ZNK4Node2inEj(ptr noundef nonnull align 8 dereferenceable(52) %19, i32 noundef 2)
  call void @_ZN4Node7add_reqEPS_(ptr noundef nonnull align 8 dereferenceable(52) %81, ptr noundef %82)
  %83 = load ptr, ptr %15, align 8
  call void @_ZN4Node8add_flagEj(ptr noundef nonnull align 8 dereferenceable(52) %83, i32 noundef 16384)
  %84 = load ptr, ptr %15, align 8
  store ptr %84, ptr %4, align 8
  br label %113

85:                                               ; preds = %3
  store ptr null, ptr %16, align 8
  %86 = load i8, ptr %9, align 1
  %87 = zext i8 %86 to i32
  %88 = icmp eq i32 %87, 11
  br i1 %88, label %89, label %92

89:                                               ; preds = %85
  %90 = load ptr, ptr %6, align 8
  %91 = call noundef ptr @_ZN11PhaseValues7longconEl(ptr noundef nonnull align 8 dereferenceable(2400) %90, i64 noundef 0)
  store ptr %91, ptr %16, align 8
  store i32 343, ptr %17, align 4
  br label %95

92:                                               ; preds = %85
  %93 = load ptr, ptr %6, align 8
  %94 = call noundef ptr @_ZN11PhaseValues6intconEi(ptr noundef nonnull align 8 dereferenceable(2400) %93, i32 noundef 0)
  store ptr %94, ptr %16, align 8
  store i32 342, ptr %17, align 4
  br label %95

95:                                               ; preds = %92, %89
  %96 = load ptr, ptr %6, align 8
  %97 = load ptr, ptr %16, align 8
  %98 = load i32, ptr %10, align 4
  %99 = load i8, ptr %9, align 1
  %100 = call noundef ptr @_ZN4Type20get_const_basic_typeE9BasicType(i8 noundef zeroext %99)
  %101 = call noundef ptr @_ZN10VectorNode13scalar2vectorEP4NodejPK4Typeb(ptr noundef %97, i32 noundef %98, ptr noundef %100, i1 noundef zeroext false)
  %102 = load ptr, ptr %96, align 8
  %103 = getelementptr inbounds ptr, ptr %102, i64 0
  %104 = load ptr, ptr %103, align 8
  %105 = call noundef ptr %104(ptr noundef nonnull align 8 dereferenceable(2400) %96, ptr noundef %101)
  store ptr %105, ptr %16, align 8
  %106 = load i32, ptr %17, align 4
  %107 = load i8, ptr %9, align 1
  %108 = call noundef i32 @_ZN10VectorNode6opcodeEi9BasicType(i32 noundef %106, i8 noundef zeroext %107)
  %109 = load ptr, ptr %16, align 8
  %110 = call noundef ptr @_ZNK4Node2inEj(ptr noundef nonnull align 8 dereferenceable(52) %19, i32 noundef 1)
  %111 = load ptr, ptr %8, align 8
  %112 = call noundef ptr @_ZN10VectorNode4makeEiP4NodeS1_PK8TypeVectbb(i32 noundef %108, ptr noundef %109, ptr noundef %110, ptr noundef %111, i1 noundef zeroext false, i1 noundef zeroext false)
  store ptr %112, ptr %4, align 8
  br label %113

113:                                              ; preds = %95, %40
  %114 = load ptr, ptr %4, align 8
  ret ptr %114
}