; Function Attrs: mustprogress nounwind uwtable
define hidden noundef ptr @_ZN8NegVNode26degenerate_integral_negateEP8PhaseGVNb(ptr nocapture noundef nonnull readonly align 8 dereferenceable(64) %0, ptr noundef %1, i1 noundef zeroext %2) local_unnamed_addr #1 align 2 {
  %4 = getelementptr inbounds i8, ptr %0, i64 56
  %5 = load ptr, ptr %4, align 8
  %6 = getelementptr inbounds i8, ptr %5, i64 24
  %7 = load ptr, ptr %6, align 8
  %8 = tail call noundef zeroext i8 @_ZNK4Type24array_element_basic_typeEv(ptr noundef nonnull align 8 dereferenceable(20) %7) #8
  %9 = load ptr, ptr %4, align 8
  %10 = getelementptr inbounds i8, ptr %9, i64 32
  %11 = load i32, ptr %10, align 8
  %12 = icmp eq i8 %8, 11
  br i1 %2, label %13, label %75

13:                                               ; preds = %3
  br i1 %12, label %14, label %17

14:                                               ; preds = %13
  %15 = tail call noundef ptr @_ZN11PhaseValues7longconEl(ptr noundef nonnull align 8 dereferenceable(2400) %1, i64 noundef -1) #8
  %16 = tail call noundef ptr @_ZN11PhaseValues7longconEl(ptr noundef nonnull align 8 dereferenceable(2400) %1, i64 noundef 1) #8
  br label %20

17:                                               ; preds = %13
  %18 = tail call noundef ptr @_ZN11PhaseValues6intconEi(ptr noundef nonnull align 8 dereferenceable(2400) %1, i32 noundef -1) #8
  %19 = tail call noundef ptr @_ZN11PhaseValues6intconEi(ptr noundef nonnull align 8 dereferenceable(2400) %1, i32 noundef 1) #8
  br label %20

20:                                               ; preds = %17, %14
  %.045 = phi ptr [ %16, %14 ], [ %19, %17 ]
  %.044 = phi i32 [ 24, %14 ], [ 23, %17 ]
  %.043 = phi ptr [ %15, %14 ], [ %18, %17 ]
  %21 = zext i8 %8 to i64
  %22 = getelementptr inbounds [20 x ptr], ptr @_ZN4Type17_const_basic_typeE, i64 0, i64 %21
  %23 = load ptr, ptr %22, align 8
  %24 = tail call noundef ptr @_ZN10VectorNode13scalar2vectorEP4NodejPK4Typeb(ptr noundef %.043, i32 noundef %11, ptr noundef %23, i1 noundef zeroext false)
  %25 = load ptr, ptr %1, align 8
  %26 = load ptr, ptr %25, align 8
  %27 = tail call noundef ptr %26(ptr noundef nonnull align 8 dereferenceable(2400) %1, ptr noundef %24) #8
  %28 = getelementptr inbounds i8, ptr %0, i64 8
  %29 = load ptr, ptr %28, align 8
  %30 = getelementptr inbounds i8, ptr %29, i64 8
  %31 = load ptr, ptr %30, align 8
  %32 = tail call align 8 ptr @llvm.threadlocal.address.p0(ptr align 8 @_ZN6Thread12_thr_currentE)
  %33 = load ptr, ptr %32, align 8
  %34 = getelementptr inbounds i8, ptr %33, i64 1808
  %35 = load ptr, ptr %34, align 8
  %36 = getelementptr inbounds i8, ptr %35, i64 128
  %37 = load ptr, ptr %36, align 8
  %38 = getelementptr inbounds i8, ptr %37, i64 728
  %39 = load ptr, ptr %38, align 8
  %40 = getelementptr inbounds i8, ptr %39, i64 40
  %41 = load ptr, ptr %40, align 8
  %42 = getelementptr inbounds i8, ptr %39, i64 32
  %43 = load ptr, ptr %42, align 8
  %44 = ptrtoint ptr %41 to i64
  %45 = ptrtoint ptr %43 to i64
  %46 = sub i64 %44, %45
  %.not.i.i.i = icmp ult i64 %46, 64
  br i1 %.not.i.i.i, label %49, label %47

47:                                               ; preds = %20
  %48 = getelementptr inbounds i8, ptr %43, i64 64
  store ptr %48, ptr %42, align 8
  br label %_ZN4NodenwEm.exit

49:                                               ; preds = %20
  %50 = tail call noundef ptr @_ZN5Arena4growEmN17AllocFailStrategy13AllocFailEnumE(ptr noundef nonnull align 8 dereferenceable(48) %39, i64 noundef 64, i32 noundef 0) #8
  br label %_ZN4NodenwEm.exit

_ZN4NodenwEm.exit:                                ; preds = %47, %49
  %.0.i.i.i = phi ptr [ %43, %47 ], [ %50, %49 ]
  %51 = icmp eq ptr %.0.i.i.i, null
  br i1 %51, label %_ZN10VectorNode4makeEiP4NodeS1_PK8TypeVectbb.exit, label %52

52:                                               ; preds = %_ZN4NodenwEm.exit
  tail call void @_ZN8XorVNodeC2EP4NodeS1_PK8TypeVect(ptr noundef nonnull align 8 dereferenceable(64) %.0.i.i.i, ptr noundef %31, ptr noundef %27, ptr noundef nonnull %5)
  br label %_ZN10VectorNode4makeEiP4NodeS1_PK8TypeVectbb.exit

_ZN10VectorNode4makeEiP4NodeS1_PK8TypeVectbb.exit: ; preds = %_ZN4NodenwEm.exit, %52
  %53 = load ptr, ptr %28, align 8
  %54 = getelementptr inbounds i8, ptr %53, i64 16
  %55 = load ptr, ptr %54, align 8
  tail call void @_ZN4Node7add_reqEPS_(ptr noundef nonnull align 8 dereferenceable(52) %.0.i.i.i, ptr noundef %55) #8
  %56 = getelementptr inbounds i8, ptr %.0.i.i.i, i64 48
  %57 = load i32, ptr %56, align 8
  %58 = or i32 %57, 16384
  store i32 %58, ptr %56, align 8
  %59 = load ptr, ptr %1, align 8
  %60 = load ptr, ptr %59, align 8
  %61 = tail call noundef ptr %60(ptr noundef nonnull align 8 dereferenceable(2400) %1, ptr noundef nonnull %.0.i.i.i) #8
  %62 = load ptr, ptr %22, align 8
  %63 = tail call noundef ptr @_ZN10VectorNode13scalar2vectorEP4NodejPK4Typeb(ptr noundef %.045, i32 noundef %11, ptr noundef %62, i1 noundef zeroext false)
  %64 = load ptr, ptr %1, align 8
  %65 = load ptr, ptr %64, align 8
  %66 = tail call noundef ptr %65(ptr noundef nonnull align 8 dereferenceable(2400) %1, ptr noundef %63) #8
  %67 = tail call noundef i32 @_ZN10VectorNode6opcodeEi9BasicType(i32 noundef %.044, i8 noundef zeroext %8)
  %68 = tail call noundef ptr @_ZN10VectorNode4makeEiP4NodeS1_PK8TypeVectbb(i32 noundef %67, ptr noundef nonnull %.0.i.i.i, ptr noundef %66, ptr noundef nonnull %5, i1 noundef zeroext false, i1 noundef zeroext false)
  %69 = load ptr, ptr %28, align 8
  %70 = getelementptr inbounds i8, ptr %69, i64 16
  %71 = load ptr, ptr %70, align 8
  tail call void @_ZN4Node7add_reqEPS_(ptr noundef nonnull align 8 dereferenceable(52) %68, ptr noundef %71) #8
  %72 = getelementptr inbounds i8, ptr %68, i64 48
  %73 = load i32, ptr %72, align 8
  %74 = or i32 %73, 16384
  store i32 %74, ptr %72, align 8
  br label %94

75:                                               ; preds = %3
  br i1 %12, label %76, label %78

76:                                               ; preds = %75
  %77 = tail call noundef ptr @_ZN11PhaseValues7longconEl(ptr noundef nonnull align 8 dereferenceable(2400) %1, i64 noundef 0) #8
  br label %80

78:                                               ; preds = %75
  %79 = tail call noundef ptr @_ZN11PhaseValues6intconEi(ptr noundef nonnull align 8 dereferenceable(2400) %1, i32 noundef 0) #8
  br label %80

80:                                               ; preds = %78, %76
  %.041 = phi ptr [ %77, %76 ], [ %79, %78 ]
  %.0 = phi i32 [ 343, %76 ], [ 342, %78 ]
  %81 = zext i8 %8 to i64
  %82 = getelementptr inbounds [20 x ptr], ptr @_ZN4Type17_const_basic_typeE, i64 0, i64 %81
  %83 = load ptr, ptr %82, align 8
  %84 = tail call noundef ptr @_ZN10VectorNode13scalar2vectorEP4NodejPK4Typeb(ptr noundef %.041, i32 noundef %11, ptr noundef %83, i1 noundef zeroext false)
  %85 = load ptr, ptr %1, align 8
  %86 = load ptr, ptr %85, align 8
  %87 = tail call noundef ptr %86(ptr noundef nonnull align 8 dereferenceable(2400) %1, ptr noundef %84) #8
  %88 = tail call noundef i32 @_ZN10VectorNode6opcodeEi9BasicType(i32 noundef %.0, i8 noundef zeroext %8)
  %89 = getelementptr inbounds i8, ptr %0, i64 8
  %90 = load ptr, ptr %89, align 8
  %91 = getelementptr inbounds i8, ptr %90, i64 8
  %92 = load ptr, ptr %91, align 8
  %93 = tail call noundef ptr @_ZN10VectorNode4makeEiP4NodeS1_PK8TypeVectbb(i32 noundef %88, ptr noundef %87, ptr noundef %92, ptr noundef nonnull %5, i1 noundef zeroext false, i1 noundef zeroext false)
  br label %94

94:                                               ; preds = %80, %_ZN10VectorNode4makeEiP4NodeS1_PK8TypeVectbb.exit
  %.042 = phi ptr [ %68, %_ZN10VectorNode4makeEiP4NodeS1_PK8TypeVectbb.exit ], [ %93, %80 ]
  ret ptr %.042
}